target datalayout = "e-m:e-p270:32:32-p271:32:32-p272:64:64-i64:64-i128:128-f80:128-n8:16:32:64-S128"
target triple = "x86_64-pc-linux-gnu"

%struct.bio_st = type { ptr, ptr, ptr, ptr, ptr, i32, i32, i32, i32, i32, ptr, ptr, ptr, %struct.CRYPTO_REF_COUNT, i64, i64, %struct.crypto_ex_data_st }
%struct.CRYPTO_REF_COUNT = type { i32 }
%struct.crypto_ex_data_st = type { ptr, ptr }

; Function Attrs: nounwind uwtable
define internal i32 @file_write(ptr noundef %0, ptr noundef %1, i32 noundef %2) #0 {
  %4 = alloca ptr, align 8
  %5 = alloca ptr, align 8
  %6 = alloca i32, align 4
  %7 = alloca i32, align 4
  store ptr %0, ptr %4, align 8, !tbaa !12
  store ptr %1, ptr %5, align 8, !tbaa !3
  store i32 %2, ptr %6, align 4, !tbaa !10
  call void @llvm.lifetime.start.p0(i64 4, ptr %7) #6
  store i32 0, ptr %7, align 4, !tbaa !10
  %8 = load ptr, ptr %4, align 8, !tbaa !12
  %9 = getelementptr inbounds nuw %struct.bio_st, ptr %8, i32 0, i32 5
  %10 = load i32, ptr %9, align 8, !tbaa !14
  %11 = icmp ne i32 %10, 0
  br i1 %11, label %12, label %45

12:                                               ; preds = %3
  %13 = load ptr, ptr %5, align 8, !tbaa !3
  %14 = icmp ne ptr %13, null
  br i1 %14, label %15, label %45

15:                                               ; preds = %12
  %16 = load ptr, ptr %4, align 8, !tbaa !12
  %17 = getelementptr inbounds nuw %struct.bio_st, ptr %16, i32 0, i32 7
  %18 = load i32, ptr %17, align 8, !tbaa !22
  %19 = and i32 %18, 0
  %20 = icmp ne i32 %19, 0
  br i1 %20, label %21, label %30

21:                                               ; preds = %15
  %22 = load ptr, ptr %5, align 8, !tbaa !3
  %23 = load i32, ptr %6, align 4, !tbaa !10
  %24 = sext i32 %23 to i64
  %25 = load ptr, ptr %4, align 8, !tbaa !12
  %26 = getelementptr inbounds nuw %struct.bio_st, ptr %25, i32 0, i32 10
  %27 = load ptr, ptr %26, align 8, !tbaa !23
  %28 = call i64 @fwrite(ptr noundef %22, i64 noundef %24, i64 noundef 1, ptr noundef %27)
  %29 = trunc i64 %28 to i32
  store i32 %29, ptr %7, align 4, !tbaa !10
  br label %39

30:                                               ; preds = %15
  %31 = load ptr, ptr %5, align 8, !tbaa !3
  %32 = load i32, ptr %6, align 4, !tbaa !10
  %33 = sext i32 %32 to i64
  %34 = load ptr, ptr %4, align 8, !tbaa !12
  %35 = getelementptr inbounds nuw %struct.bio_st, ptr %34, i32 0, i32 10
  %36 = load ptr, ptr %35, align 8, !tbaa !23
  %37 = call i64 @fwrite(ptr noundef %31, i64 noundef %33, i64 noundef 1, ptr noundef %36)
  %38 = trunc i64 %37 to i32
  store i32 %38, ptr %7, align 4, !tbaa !10
  br label %39

39:                                               ; preds = %30, %21
  %40 = load i32, ptr %7, align 4, !tbaa !10
  %41 = icmp ne i32 %40, 0
  br i1 %41, label %42, label %44

42:                                               ; preds = %39
  %43 = load i32, ptr %6, align 4, !tbaa !10
  store i32 %43, ptr %7, align 4, !tbaa !10
  br label %44

44:                                               ; preds = %42, %39
  br label %45

45:                                               ; preds = %44, %12, %3
  %46 = load i32, ptr %7, align 4, !tbaa !10
  call void @llvm.lifetime.end.p0(i64 4, ptr %7) #6
  ret i32 %46
}