; Function Attrs: nofree nounwind uwtable
define internal noundef i32 @file_write(ptr noundef readonly captures(none) %0, ptr noundef captures(address_is_null) %1, i32 noundef %2) #7 {
  %4 = getelementptr inbounds nuw i8, ptr %0, i64 40
  %5 = load i32, ptr %4, align 8, !tbaa !7
  %6 = icmp ne i32 %5, 0
  %7 = icmp ne ptr %1, null
  %or.cond = and i1 %7, %6
  br i1 %or.cond, label %8, label %14

8:                                                ; preds = %3
  %9 = sext i32 %2 to i64
  %10 = getelementptr inbounds nuw i8, ptr %0, i64 64
  %11 = load ptr, ptr %10, align 8, !tbaa !18
  %12 = tail call i64 @fwrite(ptr noundef nonnull %1, i64 noundef %9, i64 noundef 1, ptr noundef %11)
  %13 = and i64 %12, 4294967295
  %.not = icmp eq i64 %13, 0
  %spec.select = select i1 %.not, i32 0, i32 %2
  br label %14

14:                                               ; preds = %8, %3
  %.0 = phi i32 [ 0, %3 ], [ %spec.select, %8 ]
  ret i32 %.0
}